target datalayout = "e-m:e-p270:32:32-p271:32:32-p272:64:64-i64:64-i128:128-f80:128-n8:16:32:64-S128"
target triple = "x86_64-pc-linux-gnu"

%struct.prov_aes_gcm_siv_ctx_st = type { ptr, ptr, ptr, ptr, ptr, i64, i64, [32 x i8], [32 x i8], [16 x i8], [16 x i8], [16 x i8], [12 x i8], [16 x %struct.u128], i8 }
%struct.u128 = type { i64, i64 }
%struct.prov_cipher_hw_aes_gcm_siv_st = type { ptr, ptr, ptr, ptr }

@.str = private unnamed_addr constant [66 x i8] c"../openssl/providers/implementations/ciphers/cipher_aes_gcm_siv.c\00", align 1

; Function Attrs: nounwind uwtable
define internal ptr @ossl_aes_gcm_siv_dupctx(ptr noundef %0) #0 {
  %2 = alloca ptr, align 8
  %3 = alloca ptr, align 8
  %4 = alloca ptr, align 8
  %5 = alloca ptr, align 8
  %6 = alloca i32, align 4
  store ptr %0, ptr %3, align 8, !tbaa !3
  call void @llvm.lifetime.start.p0(i64 8, ptr %4) #5
  %7 = load ptr, ptr %3, align 8, !tbaa !3
  store ptr %7, ptr %4, align 8, !tbaa !7
  call void @llvm.lifetime.start.p0(i64 8, ptr %5) #5
  %8 = call i32 @ossl_prov_is_running()
  %9 = icmp ne i32 %8, 0
  br i1 %9, label %11, label %10

10:                                               ; preds = %1
  store ptr null, ptr %2, align 8
  store i32 1, ptr %6, align 4
  br label %72

11:                                               ; preds = %1
  %12 = load ptr, ptr %4, align 8, !tbaa !7
  %13 = getelementptr inbounds nuw %struct.prov_aes_gcm_siv_ctx_st, ptr %12, i32 0, i32 1
  %14 = load ptr, ptr %13, align 8, !tbaa !19
  %15 = icmp eq ptr %14, null
  br i1 %15, label %16, label %17

16:                                               ; preds = %11
  store ptr null, ptr %2, align 8
  store i32 1, ptr %6, align 4
  br label %72

17:                                               ; preds = %11
  %18 = load ptr, ptr %4, align 8, !tbaa !7
  %19 = call noalias ptr @CRYPTO_memdup(ptr noundef %18, i64 noundef 448, ptr noundef @.str, i32 noundef 67)
  store ptr %19, ptr %5, align 8, !tbaa !7
  %20 = load ptr, ptr %5, align 8, !tbaa !7
  %21 = icmp eq ptr %20, null
  br i1 %21, label %22, label %23

22:                                               ; preds = %17
  store ptr null, ptr %2, align 8
  store i32 1, ptr %6, align 4
  br label %72

23:                                               ; preds = %17
  %24 = load ptr, ptr %5, align 8, !tbaa !7
  %25 = getelementptr inbounds nuw %struct.prov_aes_gcm_siv_ctx_st, ptr %24, i32 0, i32 2
  store ptr null, ptr %25, align 8, !tbaa !9
  %26 = load ptr, ptr %5, align 8, !tbaa !7
  %27 = getelementptr inbounds nuw %struct.prov_aes_gcm_siv_ctx_st, ptr %26, i32 0, i32 0
  store ptr null, ptr %27, align 8, !tbaa !22
  %28 = load ptr, ptr %4, align 8, !tbaa !7
  %29 = getelementptr inbounds nuw %struct.prov_aes_gcm_siv_ctx_st, ptr %28, i32 0, i32 2
  %30 = load ptr, ptr %29, align 8, !tbaa !9
  %31 = icmp ne ptr %30, null
  br i1 %31, label %32, label %47

32:                                               ; preds = %23
  %33 = load ptr, ptr %4, align 8, !tbaa !7
  %34 = getelementptr inbounds nuw %struct.prov_aes_gcm_siv_ctx_st, ptr %33, i32 0, i32 2
  %35 = load ptr, ptr %34, align 8, !tbaa !9
  %36 = load ptr, ptr %5, align 8, !tbaa !7
  %37 = getelementptr inbounds nuw %struct.prov_aes_gcm_siv_ctx_st, ptr %36, i32 0, i32 5
  %38 = load i64, ptr %37, align 8, !tbaa !18
  %39 = add i64 %38, 15
  %40 = and i64 %39, -16
  %41 = call noalias ptr @CRYPTO_memdup(ptr noundef %35, i64 noundef %40, ptr noundef @.str, i32 noundef 75)
  %42 = load ptr, ptr %5, align 8, !tbaa !7
  %43 = getelementptr inbounds nuw %struct.prov_aes_gcm_siv_ctx_st, ptr %42, i32 0, i32 2
  store ptr %41, ptr %43, align 8, !tbaa !9
  %44 = icmp eq ptr %41, null
  br i1 %44, label %45, label %46

45:                                               ; preds = %32
  br label %60

46:                                               ; preds = %32
  br label %47

47:                                               ; preds = %46, %23
  %48 = load ptr, ptr %4, align 8, !tbaa !7
  %49 = getelementptr inbounds nuw %struct.prov_aes_gcm_siv_ctx_st, ptr %48, i32 0, i32 1
  %50 = load ptr, ptr %49, align 8, !tbaa !19
  %51 = getelementptr inbounds nuw %struct.prov_cipher_hw_aes_gcm_siv_st, ptr %50, i32 0, i32 2
  %52 = load ptr, ptr %51, align 8, !tbaa !23
  %53 = load ptr, ptr %5, align 8, !tbaa !7
  %54 = load ptr, ptr %4, align 8, !tbaa !7
  %55 = call i32 %52(ptr noundef %53, ptr noundef %54)
  %56 = icmp ne i32 %55, 0
  br i1 %56, label %58, label %57

57:                                               ; preds = %47
  br label %60

58:                                               ; preds = %47
  %59 = load ptr, ptr %5, align 8, !tbaa !7
  store ptr %59, ptr %2, align 8
  store i32 1, ptr %6, align 4
  br label %72

60:                                               ; preds = %57, %45
  %61 = load ptr, ptr %5, align 8, !tbaa !7
  %62 = icmp ne ptr %61, null
  br i1 %62, label %63, label %71

63:                                               ; preds = %60
  %64 = load ptr, ptr %5, align 8, !tbaa !7
  %65 = getelementptr inbounds nuw %struct.prov_aes_gcm_siv_ctx_st, ptr %64, i32 0, i32 2
  %66 = load ptr, ptr %65, align 8, !tbaa !9
  %67 = load ptr, ptr %5, align 8, !tbaa !7
  %68 = getelementptr inbounds nuw %struct.prov_aes_gcm_siv_ctx_st, ptr %67, i32 0, i32 5
  %69 = load i64, ptr %68, align 8, !tbaa !18
  call void @CRYPTO_clear_free(ptr noundef %66, i64 noundef %69, ptr noundef @.str, i32 noundef 85)
  %70 = load ptr, ptr %5, align 8, !tbaa !7
  call void @CRYPTO_free(ptr noundef %70, ptr noundef @.str, i32 noundef 86)
  br label %71

71:                                               ; preds = %63, %60
  store ptr null, ptr %2, align 8
  store i32 1, ptr %6, align 4
  br label %72

72:                                               ; preds = %71, %58, %22, %16, %10
  call void @llvm.lifetime.end.p0(i64 8, ptr %5) #5
  call void @llvm.lifetime.end.p0(i64 8, ptr %4) #5
  %73 = load ptr, ptr %2, align 8
  ret ptr %73
}