; Function Attrs: nounwind uwtable
define internal ptr @ossl_aes_gcm_siv_dupctx(ptr noundef %0) #0 {
  %2 = tail call i32 @ossl_prov_is_running() #5
  %.not = icmp eq i32 %2, 0
  br i1 %.not, label %30, label %3

3:                                                ; preds = %1
  %4 = getelementptr inbounds nuw i8, ptr %0, i64 8
  %5 = load ptr, ptr %4, align 8, !tbaa !15
  %6 = icmp eq ptr %5, null
  br i1 %6, label %30, label %7

7:                                                ; preds = %3
  %8 = tail call noalias ptr @CRYPTO_memdup(ptr noundef nonnull %0, i64 noundef 448, ptr noundef nonnull @.str, i32 noundef 67) #5
  %9 = icmp eq ptr %8, null
  br i1 %9, label %30, label %10

10:                                               ; preds = %7
  %11 = getelementptr inbounds nuw i8, ptr %8, i64 16
  store ptr null, ptr %11, align 8, !tbaa !18
  store ptr null, ptr %8, align 8, !tbaa !22
  %12 = getelementptr inbounds nuw i8, ptr %0, i64 16
  %13 = load ptr, ptr %12, align 8, !tbaa !18
  %.not21 = icmp eq ptr %13, null
  br i1 %.not21, label %21, label %14

14:                                               ; preds = %10
  %15 = getelementptr inbounds nuw i8, ptr %8, i64 40
  %16 = load i64, ptr %15, align 8, !tbaa !19
  %17 = add i64 %16, 15
  %18 = and i64 %17, -16
  %19 = tail call noalias ptr @CRYPTO_memdup(ptr noundef nonnull %13, i64 noundef %18, ptr noundef nonnull @.str, i32 noundef 75) #5
  store ptr %19, ptr %11, align 8, !tbaa !18
  %20 = icmp eq ptr %19, null
  br i1 %20, label %26, label %21

21:                                               ; preds = %14, %10
  %22 = load ptr, ptr %4, align 8, !tbaa !15
  %23 = getelementptr inbounds nuw i8, ptr %22, i64 16
  %24 = load ptr, ptr %23, align 8, !tbaa !23
  %25 = tail call i32 %24(ptr noundef nonnull %8, ptr noundef nonnull %0) #5
  %.not22 = icmp eq i32 %25, 0
  br i1 %.not22, label %._crit_edge, label %30

._crit_edge:                                      ; preds = %21
  %.pre = load ptr, ptr %11, align 8, !tbaa !18
  br label %26

26:                                               ; preds = %._crit_edge, %14
  %27 = phi ptr [ %.pre, %._crit_edge ], [ null, %14 ]
  %28 = getelementptr inbounds nuw i8, ptr %8, i64 40
  %29 = load i64, ptr %28, align 8, !tbaa !19
  tail call void @CRYPTO_clear_free(ptr noundef %27, i64 noundef %29, ptr noundef nonnull @.str, i32 noundef 85) #5
  tail call void @CRYPTO_free(ptr noundef nonnull %8, ptr noundef nonnull @.str, i32 noundef 86) #5
  br label %30

30:                                               ; preds = %21, %7, %3, %1, %26
  %.0 = phi ptr [ null, %26 ], [ null, %1 ], [ null, %3 ], [ null, %7 ], [ %8, %21 ]
  ret ptr %.0
}